; Function Attrs: nofree norecurse nosync nounwind memory(argmem: read) uwtable
define zeroext i8 @lv_animimg_get_src_count(ptr noundef readonly captures(address_is_null) %0) local_unnamed_addr #2 {
  %.not = icmp eq ptr %0, null
  br i1 %.not, label %.preheader, label %2

.preheader:                                       ; preds = %1, %.preheader
  br label %.preheader

2:                                                ; preds = %1
  %3 = getelementptr inbounds nuw i8, ptr %0, i64 264
  %4 = load i8, ptr %3, align 8, !tbaa !19
  ret i8 %4
}